target datalayout = "e-m:e-p270:32:32-p271:32:32-p272:64:64-i64:64-i128:128-f80:128-n8:16:32:64-S128"
target triple = "x86_64-pc-linux-gnu"

%struct.rb_data_type_struct = type { ptr, %struct.anon, ptr, ptr, i64 }
%struct.anon = type { ptr, ptr, ptr, ptr, [1 x ptr] }
%struct.SimpleDateData = type { i32, i32, i64, float, i32, i32 }
%struct.ComplexDateData = type { i32, i32, i64, float, i32, i32, i32, i32, i64 }

@d_lite_type = internal constant %struct.rb_data_type_struct { ptr @.str.14, %struct.anon { ptr @d_lite_gc_mark, ptr inttoptr (i64 -1 to ptr), ptr @d_lite_memsize, ptr null, [1 x ptr] zeroinitializer }, ptr null, ptr null, i64 289 }, align 8

; Function Attrs: inlinehint nounwind sspstrong uwtable
define internal i64 @m_nth(ptr noundef %0) #3 {
  %2 = alloca i64, align 8
  %3 = alloca ptr, align 8
  store ptr %0, ptr %3, align 8, !tbaa !27
  %4 = load ptr, ptr %3, align 8, !tbaa !27
  %5 = load i32, ptr %4, align 8, !tbaa !38
  %6 = and i32 %5, 128
  %7 = icmp ne i32 %6, 0
  br i1 %7, label %12, label %8

8:                                                ; preds = %1
  %9 = load ptr, ptr %3, align 8, !tbaa !27
  %10 = getelementptr inbounds nuw %struct.SimpleDateData, ptr %9, i32 0, i32 2
  %11 = load i64, ptr %10, align 8, !tbaa !38
  store i64 %11, ptr %2, align 8
  br label %17

12:                                               ; preds = %1
  %13 = load ptr, ptr %3, align 8, !tbaa !27
  call void @get_c_civil(ptr noundef %13)
  %14 = load ptr, ptr %3, align 8, !tbaa !27
  %15 = getelementptr inbounds nuw %struct.ComplexDateData, ptr %14, i32 0, i32 2
  %16 = load i64, ptr %15, align 8, !tbaa !38
  store i64 %16, ptr %2, align 8
  br label %17

17:                                               ; preds = %12, %8
  %18 = load i64, ptr %2, align 8
  ret i64 %18
}

; Function Attrs: nounwind sspstrong uwtable
define internal i64 @m_real_local_jd(ptr noundef %0) #0 {
  %2 = alloca ptr, align 8
  %3 = alloca i64, align 8
  %4 = alloca i64, align 8
  %5 = alloca i32, align 4
  store ptr %0, ptr %2, align 8, !tbaa !27
  call void @llvm.lifetime.start.p0(i64 8, ptr %3) #23
  call void @llvm.lifetime.start.p0(i64 8, ptr %4) #23
  call void @llvm.lifetime.start.p0(i64 4, ptr %5) #23
  %6 = load ptr, ptr %2, align 8, !tbaa !27
  %7 = call i64 @m_nth(ptr noundef %6)
  store i64 %7, ptr %3, align 8, !tbaa !6
  %8 = load ptr, ptr %2, align 8, !tbaa !27
  %9 = call i32 @m_local_jd(ptr noundef %8)
  store i32 %9, ptr %5, align 4, !tbaa !19
  %10 = load i64, ptr %3, align 8, !tbaa !6
  %11 = load i32, ptr %5, align 4, !tbaa !19
  call void @encode_jd(i64 noundef %10, i32 noundef %11, ptr noundef %4)
  %12 = load i64, ptr %4, align 8, !tbaa !6
  call void @llvm.lifetime.end.p0(i64 4, ptr %5) #23
  call void @llvm.lifetime.end.p0(i64 8, ptr %4) #23
  call void @llvm.lifetime.end.p0(i64 8, ptr %3) #23
  ret i64 %12
}

; Function Attrs: nounwind sspstrong uwtable
define internal i64 @d_lite_jd(i64 noundef %0) #0 {
  %2 = alloca i64, align 8
  %3 = alloca ptr, align 8
  store i64 %0, ptr %2, align 8, !tbaa !6
  call void @llvm.lifetime.start.p0(i64 8, ptr %3) #23
  %4 = load i64, ptr %2, align 8, !tbaa !6
  %5 = call ptr @rb_check_typeddata(i64 noundef %4, ptr noundef @d_lite_type)
  store ptr %5, ptr %3, align 8, !tbaa !27
  %6 = load ptr, ptr %3, align 8, !tbaa !27
  %7 = call i64 @m_real_local_jd(ptr noundef %6)
  call void @llvm.lifetime.end.p0(i64 8, ptr %3) #23
  ret i64 %7
}