; Function Attrs: nounwind sspstrong uwtable
define internal i64 @d_lite_jd(i64 noundef %0) #0 {
  %2 = alloca i64, align 8
  %3 = tail call ptr @rb_check_typeddata(i64 noundef %0, ptr noundef nonnull @d_lite_type) #21
  call void @llvm.lifetime.start.p0(i64 8, ptr nonnull %2) #21
  %4 = load i32, ptr %3, align 8, !tbaa !47
  %5 = and i32 %4, 128
  %.not.i.i = icmp eq i32 %5, 0
  br i1 %.not.i.i, label %m_real_local_jd.exit, label %6

6:                                                ; preds = %1
  tail call fastcc void @get_c_civil(ptr noundef nonnull %3)
  br label %m_real_local_jd.exit

m_real_local_jd.exit:                             ; preds = %1, %6
  %.0.in.i.i = getelementptr inbounds nuw i8, ptr %3, i64 8
  %.0.i.i = load i64, ptr %.0.in.i.i, align 8, !tbaa !47
  %7 = tail call fastcc i32 @m_local_jd(ptr noundef nonnull %3)
  call fastcc void @encode_jd(i64 noundef %.0.i.i, i32 noundef %7, ptr noundef %2)
  %8 = load i64, ptr %2, align 8, !tbaa !6
  call void @llvm.lifetime.end.p0(i64 8, ptr nonnull %2) #21
  ret i64 %8
}